; Function Attrs: nounwind uwtable
define hidden void @je_tsd_cleanup(ptr noundef %0) #0 {
  %2 = getelementptr inbounds nuw i8, ptr %0, i64 832
  %3 = load i8, ptr %2, align 8, !tbaa !44
  switch i8 %3, label %16 [
    i8 6, label %tsd_set.exit
    i8 3, label %4
    i8 5, label %4
    i8 0, label %4
    i8 1, label %4
    i8 4, label %tsd_set.exit
  ]

4:                                                ; preds = %1, %1, %1, %1
  tail call void @je_prof_tdata_cleanup(ptr noundef nonnull %0) #7
  tail call void @je_iarena_cleanup(ptr noundef nonnull %0) #7
  tail call void @je_arena_cleanup(ptr noundef nonnull %0) #7
  tail call void @je_tcache_cleanup(ptr noundef nonnull %0) #7
  %5 = getelementptr inbounds nuw i8, ptr %0, i64 2704
  tail call void @je_witnesses_cleanup(ptr noundef nonnull %5) #7
  %6 = getelementptr inbounds nuw i8, ptr %0, i64 1
  store i8 1, ptr %6, align 1, !tbaa !44
  tail call void @je_tsd_state_set(ptr noundef nonnull %0, i8 noundef zeroext 4)
  %7 = tail call align 8 ptr @llvm.threadlocal.address.p0(ptr align 8 @je_tsd_tls)
  %.not.i = icmp eq ptr %7, %0
  br i1 %.not.i, label %9, label %8, !prof !51

8:                                                ; preds = %4
  tail call void @llvm.memcpy.p0.p0.i64(ptr noundef nonnull align 8 dereferenceable(2720) %7, ptr noundef nonnull align 8 dereferenceable(2720) %0, i64 2720, i1 false), !tbaa.struct !52
  br label %9

9:                                                ; preds = %8, %4
  %10 = load i32, ptr @je_tsd_tsd, align 4, !tbaa !55
  %11 = tail call i32 @pthread_setspecific(i32 noundef %10, ptr noundef nonnull %7) #7
  %.not3.i = icmp eq i32 %11, 0
  br i1 %.not3.i, label %tsd_set.exit, label %12

12:                                               ; preds = %9
  tail call void @je_malloc_write(ptr noundef nonnull @.str.1) #7
  %13 = load i8, ptr @je_opt_abort, align 1, !tbaa !45, !range !46, !noundef !47
  %14 = trunc nuw i8 %13 to i1
  br i1 %14, label %15, label %tsd_set.exit

15:                                               ; preds = %12
  tail call void @abort() #8
  unreachable

16:                                               ; preds = %1
  unreachable

tsd_set.exit:                                     ; preds = %12, %9, %1, %1
  ret void
}